(dp1
S'LLL_AV'
p2
F-0.5959736986816474
sS'RF_FORCES'
p3
(lp4
F6.2219858197159184
aF34.889690926585125
aF0
aF0
aF-0.10198553195437991
aF0.090394650087731288
aF21.450495104304988
aF62.438080576334386
aF6.6443157451420971
aF32.591783530345218
aF7.0296787797458933
aF30.245347876005475
aF7.4624064710549254
aF27.974345487638249
aF7.8036950636920777
aF25.673492183590813
aF8.1060479769693146
aF23.380394939703454
aF7.7500152994086928
aF21.120558622943733
aF5.7839140683160686
aF18.847800821862013
aF1.8927581857720346
aF16.62030025236297
aF-2.5104150054948255
aF14.455747042364159
aF-6.6043495727771049
aF12.332925787126259
aF-6.1154578305231606
aF10.374410863548759
aF-3.3151663541506275
aF8.5789141713315011
aF-1.137802771563392
aF7.1082475243812908
aF0.49330677727866395
aF6.0096750162468897
aF1.6074823269995455
aF5.3404206912611425
aF6.2103766944142933
aF13.495169194904761
aF12.963875431994254
aF41.479486393842805
aF16.925261783924896
aF54.900828198240418
asS'RF_AV'
p5
F0.87119693823809308
sS'LF_O'
p6
F-2.2883696667829065
sS'URL_AV'
p7
F-0.46227361634455089
sS'LF_D'
p8
F0.95560758971387461
sS'LF_FORCES'
p9
(lp10
F6.0472374144653118
aF34.751119544640012
aF0
aF0
aF-0.018135951849102439
aF0.048923559859630268
aF22.067002046288394
aF62.850775145361986
aF6.4852267135021808
aF32.481475008346621
aF6.9391463357525973
aF30.185353503759053
aF7.3568144312046222
aF27.914115266813901
aF7.6983252015825272
aF25.59361464579079
aF5430.1336716400783
aF23.346686693387973
aF7.6741212024154057
aF21.086594834916681
aF5.8218924151616198
aF18.836082592454588
aF1.832399857102609
aF16.619724979352032
aF-2.9130464900134458
aF14.423700885120848
aF13043.181886506663
aF12.327433331327809
aF-3.5297741307452619
aF10.367252517923149
aF-1.8459469573031011
aF8.5486353983562253
aF-0.94499891456448859
aF7.0952907423572764
aF0.5628894157168628
aF6.0214998539666515
aF1.6625041831328489
aF5.3384904353703559
aF6.2895508110778362
aF13.302899785547119
aF13.130979129188395
aF41.137694691376282
aF16.988111535993742
aF54.984859447977229
asS'LF_AV'
p11
F-0.82587110604302516
sS'URL_O'
p12
F24.106524061776373
sS'ULL_AV'
p13
F0.19085819260140119
sS'LRL_O'
p14
F-9.5867052658754943
sS'TORSO_O'
p15
F-0.1688288556659949
sS'URL_D'
p16
F0.27047916443887454
sS'LRL_D'
p17
F0.69893556665379941
sS'LLL_O'
p18
F-9.5799738312094078
sS'LLL_D'
p19
F0.69892098565087291
sS'ULL_D'
p20
F0.27047695896444612
sS'RF_O'
p21
F-2.2908259627343193
sS'TORSO_AV'
p22
F-0.22462045227836391
sS'ULL_O'
p23
F24.099852693210252
sS'RF_D'
p24
F0.95563556838975405
sS'TORSO_LV_Y'
p25
F-0.00081893241473997899
sS'TORSO_LV_X'
p26
F0.38537586458159395
sS'LRL_AV'
p27
F0.12206584946984975
sS'TORSO_D'
p28
F0.24000160699241091
s.