(dp1
S'LLL_AV'
p2
F21869.661090344802
sS'RF_FORCES'
p3
(lp4
F783.28762911300601
aF2784.7632035843258
aF0
aF0
aF88.413356949302397
aF26.564332776280789
aF3742.6890917763485
aF7861.0624695771085
aF731.50853243255585
aF2444.3537700314532
aF569.66817965725272
aF1907.1049166975554
aF529.22809611590731
aF1635.2727663611411
aF498.36390102959075
aF1388.4225520614061
aF489.14565857977465
aF1175.5508113644289
aF477.35999233266239
aF990.0548030628903
aF429.42542463525274
aF830.75217277681713
aF367.73871664888435
aF707.72923280833663
aF313.05620634948167
aF611.25794772269478
aF314.9680949454268
aF534.97608393524024
aF367.17217378386357
aF483.02234226816063
aF330.011759674274
aF442.95643242023669
aF256.94528650302118
aF415.87466937219415
aF249.6824984013208
aF409.34266076483902
aF277.27512045510605
aF429.52071663833715
aF435.49348382008588
aF1221.5785419863803
aF1099.9014544747679
aF6112.8454392221302
aF2145.8390572578496
aF7245.5970563366845
asS'RF_AV'
p5
F20936.737994155548
sS'LF_O'
p6
F182.6275464922206
sS'URL_AV'
p7
F21912.104328936304
sS'LF_D'
p8
F0.0029885527871315446
sS'LF_FORCES'
p9
(lp10
F952.78797417632688
aF3073.9723099335592
aF0
aF0
aF6.9610918454584665
aF6.3825118358637045
aF4304.6863206938306
aF8329.0083560599414
aF901.97896340604927
aF2742.0906883655498
aF854.70669525652943
aF2438.1216786749765
aF814.35148226034755
aF2167.9293853961613
aF782.10671698496094
aF1917.6140496062292
aF1742510312106.1987
aF1733.6253653897795
aF767.24245573824464
aF1555.8019253916113
aF734.35725323858708
aF1404.4831086271927
aF680.5502464411461
aF1288.6303591106155
aF670.63235834625459
aF1191.1066201004278
aF10090539092829.049
aF1117.9001874780386
aF794.28826236441409
aF1068.7889595438207
aF570.50028757448058
aF807.85198514469175
aF457.410235104854
aF784.67514880754777
aF392.33106154247798
aF779.29457566086558
aF420.44795924872449
aF789.2827536022636
aF480.29010805602428
aF1277.1552741642117
aF1300.6633306324707
aF6172.5350342759475
aF2156.1947356027285
aF7406.1067282759886
asS'LF_AV'
p11
F20407.435771387391
sS'URL_O'
p12
F258.64813014932844
sS'ULL_AV'
p13
F22060.064226058032
sS'LRL_O'
p14
F233.70530179514398
sS'TORSO_LV_Y'
p15
F0.019693325707244455
sS'URL_D'
p16
F5.7796571167904043e-09
sS'LRL_D'
p17
F0.0018628048450318206
sS'LLL_O'
p18
F236.10871198047872
sS'LLL_D'
p19
F0.0018618329722029079
sS'ULL_D'
p20
F6.161214795292221e-09
sS'RF_O'
p21
F180.50111320710261
sS'TORSO_AV'
p22
F448.69141506807699
sS'ULL_O'
p23
F263.10183676658789
sS'RF_D'
p24
F0.0029923478422762355
sS'TORSO_O'
p25
F13.844742416158311
sS'TORSO_LV_X'
p26
F0.016911574530887419
sS'LRL_AV'
p27
F21327.989549390055
sS'TORSO_D'
p28
F5.6572131067251048e-09
s.